Archive member included because of file (symbol)

/u/wbcowan/gnuarm-4.0.2/lib/gcc/arm-elf/4.0.2/libgcc.a(_udivsi3.o)
                              built/devices/bwio.o (__udivsi3)
/u/wbcowan/gnuarm-4.0.2/lib/gcc/arm-elf/4.0.2/libgcc.a(_umodsi3.o)
                              built/devices/bwio.o (__umodsi3)
/u/wbcowan/gnuarm-4.0.2/lib/gcc/arm-elf/4.0.2/libgcc.a(_dvmd_tls.o)
                              /u/wbcowan/gnuarm-4.0.2/lib/gcc/arm-elf/4.0.2/libgcc.a(_udivsi3.o) (__div0)

Memory Configuration

Name             Origin             Length             Attributes
ram              0x0000000000218000 0x0000000002000000
rom              0x0000000060000000 0x0000000000800000
*default*        0x0000000000000000 0xffffffffffffffff

Linker script and memory map

LOAD built/entry.o
LOAD built/init.o
LOAD built/trap_handler.o
LOAD built/devices/console.o
LOAD built/devices/clock.o
LOAD built/devices/bwio.o
LOAD built/lib/str.o
LOAD built/session_start.o
LOAD built/trap.o

data            0x0000000000218000        0x0
                0x0000000000218000                _DataStart = .
 *(.data)
                0x0000000000218000                _DataEnd = .

bss             0x0000000000218000        0xc
                0x0000000000218000                _BssStart = .
 *(.bss)
 .bss           0x0000000000218000        0xc built/devices/clock.o
                0x000000000021800c                _BssEnd = .

text            0x000000000021800c     0x3338
 *(.text)
 .text          0x000000000021800c      0x1fc built/entry.o
                0x0000000000218044                doexit
                0x0000000000218028                doyield
                0x0000000000218168                main
                0x0000000000218060                userland
                0x000000000021800c                dosyscall
 .text          0x0000000000218208       0xbc built/init.o
                0x00000000002182a4                kernel_shutdown
                0x0000000000218208                kernel_init
 .text          0x00000000002182c4      0x138 built/trap_handler.o
                0x0000000000218310                trap_handler
                0x00000000002182c4                trap_init
 .text          0x00000000002183fc     0x1048 built/devices/console.o
                0x0000000000218d14                console_scanf
                0x000000000021917c                console_cursor_save
                0x00000000002191bc                console_cursor_setposn
                0x0000000000219208                console_cursor_restore
                0x0000000000218cec                console_printf
                0x00000000002184e4                console_init
                0x0000000000218be8                console_putc
                0x0000000000218a98                console_write_guarantee
                0x0000000000218b40                console_read_guarantee
                0x0000000000218a54                console_drain
                0x00000000002186c4                console_deinit
                0x00000000002183fc                console_setup
                0x000000000021913c                console_cls
                0x0000000000219248                console_cursor_remove
                0x00000000002188bc                console_read
                0x00000000002186e4                console_write
                0x0000000000218c28                console_getc
 .text          0x0000000000219444      0x6fc built/devices/clock.o
                0x000000000021991c                clk_speed
                0x0000000000219af8                clk_clear
                0x000000000021971c                clk_value
                0x00000000002196b0                clk_disable
                0x00000000002197e4                clk_diff_cycles
                0x0000000000219444                clk_enable
                0x00000000002199e0                clk_reset
 .text          0x0000000000219b40      0xc54 built/devices/bwio.o
                0x0000000000219eb8                bwputr
                0x000000000021a424                bwi2a
                0x0000000000219b40                bwsetfifo
                0x0000000000219d14                bwputc
                0x000000000021a174                bwa2d
                0x0000000000219c08                bwsetspeed
                0x0000000000219dd8                c2x
                0x000000000021a21c                bwa2i
                0x000000000021a0bc                bwgetc
                0x000000000021a2e0                bwui2a
                0x000000000021a488                bwformat
                0x0000000000219fb4                bwputw
                0x000000000021a75c                bwprintf
                0x0000000000219e38                bwputx
                0x0000000000219f38                bwputstr
 .text          0x000000000021a794      0x6d4 built/lib/str.o
                0x000000000021ad88                memcpy
                0x000000000021a96c                utos_fill
                0x000000000021aadc                stou
                0x000000000021aba4                stoi
                0x000000000021ac78                strcmp
                0x000000000021ab7c                itos
                0x000000000021abc4                strlen
                0x000000000021a794                utos
 .text          0x000000000021ae68       0x3c built/session_start.o
                0x000000000021ae68                session_start
 .text          0x000000000021aea4       0x58 built/trap.o
                0x000000000021aed0                trap_handler_end
                0x000000000021aea4                trap_handler_begin
 .text          0x000000000021aefc      0x110 /u/wbcowan/gnuarm-4.0.2/lib/gcc/arm-elf/4.0.2/libgcc.a(_udivsi3.o)
                0x000000000021aefc                __udivsi3
                0x000000000021aff4                __aeabi_uidivmod
 .text          0x000000000021b00c       0xcc /u/wbcowan/gnuarm-4.0.2/lib/gcc/arm-elf/4.0.2/libgcc.a(_umodsi3.o)
                0x000000000021b00c                __umodsi3
 .text          0x000000000021b0d8        0x4 /u/wbcowan/gnuarm-4.0.2/lib/gcc/arm-elf/4.0.2/libgcc.a(_dvmd_tls.o)
                0x000000000021b0d8                __aeabi_ldiv0
                0x000000000021b0d8                __div0
                0x000000000021b0d8                __aeabi_idiv0
 *(.got)
 .got           0x000000000021b0dc       0x24 built/entry.o
 *(.got.plt)
 .got.plt       0x000000000021b100        0xc built/entry.o
                0x000000000021b100                _GLOBAL_OFFSET_TABLE_
 *(.rodata)
 .rodata        0x000000000021b10c       0x6c built/entry.o
 .rodata        0x000000000021b178       0x28 built/init.o
 .rodata        0x000000000021b1a0       0x48 built/trap_handler.o
 .rodata        0x000000000021b1e8       0x7c built/devices/console.o
 .rodata        0x000000000021b264       0x8c built/devices/clock.o
 .rodata        0x000000000021b2f0       0x54 built/lib/str.o
 *(.glue_7)
 *(.glue_7t)

.rel.dyn
LOAD /u/wbcowan/gnuarm-4.0.2/lib/gcc/arm-elf/4.0.2/libgcc.a
OUTPUT(bin/pinball.elf elf32-littlearm)

.comment        0x0000000000000000       0xa2
 .comment       0x0000000000000000       0x12 built/entry.o
 .comment       0x0000000000000012       0x12 built/init.o
 .comment       0x0000000000000024       0x12 built/trap_handler.o
 .comment       0x0000000000000036       0x12 built/devices/console.o
 .comment       0x0000000000000048       0x12 built/devices/clock.o
 .comment       0x000000000000005a       0x12 built/devices/bwio.o
 .comment       0x000000000000006c       0x12 built/lib/str.o
 .comment       0x000000000000007e       0x12 built/session_start.o
 .comment       0x0000000000000090       0x12 built/trap.o

.debug_line     0x0000000000000000      0x14f
 .debug_line    0x0000000000000000       0x86 /u/wbcowan/gnuarm-4.0.2/lib/gcc/arm-elf/4.0.2/libgcc.a(_udivsi3.o)
 .debug_line    0x0000000000000086       0x6f /u/wbcowan/gnuarm-4.0.2/lib/gcc/arm-elf/4.0.2/libgcc.a(_umodsi3.o)
 .debug_line    0x00000000000000f5       0x5a /u/wbcowan/gnuarm-4.0.2/lib/gcc/arm-elf/4.0.2/libgcc.a(_dvmd_tls.o)

.debug_info     0x0000000000000000      0x153
 .debug_info    0x0000000000000000       0x71 /u/wbcowan/gnuarm-4.0.2/lib/gcc/arm-elf/4.0.2/libgcc.a(_udivsi3.o)
 .debug_info    0x0000000000000071       0x71 /u/wbcowan/gnuarm-4.0.2/lib/gcc/arm-elf/4.0.2/libgcc.a(_umodsi3.o)
 .debug_info    0x00000000000000e2       0x71 /u/wbcowan/gnuarm-4.0.2/lib/gcc/arm-elf/4.0.2/libgcc.a(_dvmd_tls.o)

.debug_abbrev   0x0000000000000000       0x3c
 .debug_abbrev  0x0000000000000000       0x14 /u/wbcowan/gnuarm-4.0.2/lib/gcc/arm-elf/4.0.2/libgcc.a(_udivsi3.o)
 .debug_abbrev  0x0000000000000014       0x14 /u/wbcowan/gnuarm-4.0.2/lib/gcc/arm-elf/4.0.2/libgcc.a(_umodsi3.o)
 .debug_abbrev  0x0000000000000028       0x14 /u/wbcowan/gnuarm-4.0.2/lib/gcc/arm-elf/4.0.2/libgcc.a(_dvmd_tls.o)

.debug_aranges  0x0000000000000000       0x60
 .debug_aranges
                0x0000000000000000       0x20 /u/wbcowan/gnuarm-4.0.2/lib/gcc/arm-elf/4.0.2/libgcc.a(_udivsi3.o)
 .debug_aranges
                0x0000000000000020       0x20 /u/wbcowan/gnuarm-4.0.2/lib/gcc/arm-elf/4.0.2/libgcc.a(_umodsi3.o)
 .debug_aranges
                0x0000000000000040       0x20 /u/wbcowan/gnuarm-4.0.2/lib/gcc/arm-elf/4.0.2/libgcc.a(_dvmd_tls.o)
